target datalayout = "e-m:e-p270:32:32-p271:32:32-p272:64:64-i64:64-i128:128-f80:128-n8:16:32:64-S128"
target triple = "x86_64-pc-linux-gnu"

%"class.std::__shared_count" = type { ptr }
%"class.std::shared_ptr.0" = type { %"class.std::__shared_ptr.1" }
%"class.std::__shared_ptr.1" = type { ptr, %"class.std::__shared_count" }
%"struct.pxrInternal_v0_24__pxrReserved__::HdSceneIndexPrim" = type { %"class.pxrInternal_v0_24__pxrReserved__::TfToken", %"class.std::shared_ptr.0" }
%"class.pxrInternal_v0_24__pxrReserved__::TfToken" = type { %"class.pxrInternal_v0_24__pxrReserved__::TfPointerAndBits" }
%"class.pxrInternal_v0_24__pxrReserved__::TfPointerAndBits" = type { ptr }
%"class.pxrInternal_v0_24__pxrReserved__::HdSchema" = type { %"class.std::shared_ptr.0" }
%"class.std::shared_ptr.81" = type { %"class.std::__shared_ptr.82" }
%"class.std::__shared_ptr.82" = type { ptr, %"class.std::__shared_count" }
%"class.pxrInternal_v0_24__pxrReserved__::VtArray" = type { %"class.pxrInternal_v0_24__pxrReserved__::Vt_ArrayBase", ptr }
%"class.pxrInternal_v0_24__pxrReserved__::Vt_ArrayBase" = type { %"struct.pxrInternal_v0_24__pxrReserved__::Vt_ShapeData", ptr }
%"struct.pxrInternal_v0_24__pxrReserved__::Vt_ShapeData" = type { i64, [3 x i32] }
%"class.pxrInternal_v0_24__pxrReserved__::HdInstancerTopologySchema" = type { %"class.pxrInternal_v0_24__pxrReserved__::HdSchema" }

; Function Attrs: mustprogress nounwind uwtable
define linkonce_odr noundef ptr @_ZNKSt12__shared_ptrIN32pxrInternal_v0_24__pxrReserved__24HdTypedSampledDataSourceINS0_7VtArrayINS0_7SdfPathEEEEELN9__gnu_cxx12_Lock_policyE2EE3getEv(ptr noundef nonnull align 8 dereferenceable(16) %0) #2 comdat align 2 {
  %2 = alloca ptr, align 8
  store ptr %0, ptr %2, align 8
  %3 = load ptr, ptr %2, align 8
  %4 = getelementptr inbounds nuw %"class.std::__shared_ptr.82", ptr %3, i32 0, i32 0
  %5 = load ptr, ptr %4, align 8
  ret ptr %5
}

; Function Attrs: mustprogress nounwind uwtable
define linkonce_odr void @_ZN32pxrInternal_v0_24__pxrReserved__12Vt_ArrayBaseC2Ev(ptr noundef nonnull align 8 dereferenceable(32) %0) unnamed_addr #2 comdat align 2 {
  %2 = alloca ptr, align 8
  store ptr %0, ptr %2, align 8
  %3 = load ptr, ptr %2, align 8
  %4 = getelementptr inbounds nuw %"class.pxrInternal_v0_24__pxrReserved__::Vt_ArrayBase", ptr %3, i32 0, i32 0
  call void @llvm.memset.p0.i64(ptr align 8 %4, i8 0, i64 24, i1 false)
  %5 = getelementptr inbounds nuw %"class.pxrInternal_v0_24__pxrReserved__::Vt_ArrayBase", ptr %3, i32 0, i32 1
  store ptr null, ptr %5, align 8
  ret void
}

; Function Attrs: mustprogress nounwind uwtable
define linkonce_odr noundef ptr @_ZNKSt19__shared_ptr_accessIN32pxrInternal_v0_24__pxrReserved__24HdTypedSampledDataSourceINS0_7VtArrayINS0_7SdfPathEEEEELN9__gnu_cxx12_Lock_policyE2ELb0ELb0EE6_M_getEv(ptr noundef nonnull align 1 dereferenceable(1) %0) #2 comdat align 2 {
  %2 = alloca ptr, align 8
  store ptr %0, ptr %2, align 8
  %3 = load ptr, ptr %2, align 8
  %4 = call noundef ptr @_ZNKSt12__shared_ptrIN32pxrInternal_v0_24__pxrReserved__24HdTypedSampledDataSourceINS0_7VtArrayINS0_7SdfPathEEEEELN9__gnu_cxx12_Lock_policyE2EE3getEv(ptr noundef nonnull align 8 dereferenceable(16) %3) #5
  ret ptr %4
}

; Function Attrs: mustprogress uwtable
define linkonce_odr void @_ZN32pxrInternal_v0_24__pxrReserved__7VtArrayINS_7SdfPathEEC2Ev(ptr noundef nonnull align 8 dereferenceable(40) %0) unnamed_addr #0 comdat align 2 {
  %2 = alloca ptr, align 8
  store ptr %0, ptr %2, align 8
  %3 = load ptr, ptr %2, align 8
  call void @_ZN32pxrInternal_v0_24__pxrReserved__12Vt_ArrayBaseC2Ev(ptr noundef nonnull align 8 dereferenceable(32) %3)
  %4 = getelementptr inbounds nuw %"class.pxrInternal_v0_24__pxrReserved__::VtArray", ptr %3, i32 0, i32 1
  store ptr null, ptr %4, align 8
  ret void
}

; Function Attrs: mustprogress nounwind uwtable
define linkonce_odr noundef ptr @_ZNKSt19__shared_ptr_accessIN32pxrInternal_v0_24__pxrReserved__24HdTypedSampledDataSourceINS0_7VtArrayINS0_7SdfPathEEEEELN9__gnu_cxx12_Lock_policyE2ELb0ELb0EEptEv(ptr noundef nonnull align 1 dereferenceable(1) %0) #2 comdat align 2 {
  %2 = alloca ptr, align 8
  store ptr %0, ptr %2, align 8
  %3 = load ptr, ptr %2, align 8
  %4 = call noundef ptr @_ZNKSt19__shared_ptr_accessIN32pxrInternal_v0_24__pxrReserved__24HdTypedSampledDataSourceINS0_7VtArrayINS0_7SdfPathEEEEELN9__gnu_cxx12_Lock_policyE2ELb0ELb0EE6_M_getEv(ptr noundef nonnull align 1 dereferenceable(1) %3) #5
  ret ptr %4
}

; Function Attrs: mustprogress nounwind uwtable
define linkonce_odr noundef zeroext i1 @_ZNKSt12__shared_ptrIN32pxrInternal_v0_24__pxrReserved__24HdTypedSampledDataSourceINS0_7VtArrayINS0_7SdfPathEEEEELN9__gnu_cxx12_Lock_policyE2EEcvbEv(ptr noundef nonnull align 8 dereferenceable(16) %0) #2 comdat align 2 {
  %2 = alloca ptr, align 8
  store ptr %0, ptr %2, align 8
  %3 = load ptr, ptr %2, align 8
  %4 = getelementptr inbounds nuw %"class.std::__shared_ptr.82", ptr %3, i32 0, i32 0
  %5 = load ptr, ptr %4, align 8
  %6 = icmp ne ptr %5, null
  ret i1 %6
}

; Function Attrs: mustprogress uwtable
define void @_ZN32pxrInternal_v0_24__pxrReserved__47UsdImagingPiPrototypePropagatingSceneIndex_Impl14_GetPrototypesERKNS_16HdSceneIndexPrimE(ptr dead_on_unwind noalias writable sret(%"class.pxrInternal_v0_24__pxrReserved__::VtArray") align 8 %0, ptr noundef nonnull align 8 dereferenceable(24) %1) #0 personality ptr @__gxx_personality_v0 {
  %3 = alloca ptr, align 8
  %4 = alloca ptr, align 8
  %5 = alloca %"class.pxrInternal_v0_24__pxrReserved__::HdInstancerTopologySchema", align 8
  %6 = alloca %"class.std::shared_ptr.81", align 8
  %7 = alloca ptr, align 8
  %8 = alloca i32, align 4
  %9 = alloca i32, align 4
  store ptr %0, ptr %3, align 8
  store ptr %1, ptr %4, align 8
  %10 = load ptr, ptr %4, align 8
  %11 = getelementptr inbounds nuw %"struct.pxrInternal_v0_24__pxrReserved__::HdSceneIndexPrim", ptr %10, i32 0, i32 1
  call void @_ZN32pxrInternal_v0_24__pxrReserved__25HdInstancerTopologySchema13GetFromParentERKSt10shared_ptrINS_21HdContainerDataSourceEE(ptr dead_on_unwind writable sret(%"class.pxrInternal_v0_24__pxrReserved__::HdInstancerTopologySchema") align 8 %5, ptr noundef nonnull align 8 dereferenceable(16) %11)
  invoke void @_ZNK32pxrInternal_v0_24__pxrReserved__25HdInstancerTopologySchema13GetPrototypesEv(ptr dead_on_unwind writable sret(%"class.std::shared_ptr.81") align 8 %6, ptr noundef nonnull align 8 dereferenceable(16) %5)
          to label %12 unwind label %20

12:                                               ; preds = %2
  %13 = call noundef zeroext i1 @_ZNKSt12__shared_ptrIN32pxrInternal_v0_24__pxrReserved__24HdTypedSampledDataSourceINS0_7VtArrayINS0_7SdfPathEEEEELN9__gnu_cxx12_Lock_policyE2EEcvbEv(ptr noundef nonnull align 8 dereferenceable(16) %6) #5
  br i1 %13, label %14, label %28

14:                                               ; preds = %12
  %15 = call noundef ptr @_ZNKSt19__shared_ptr_accessIN32pxrInternal_v0_24__pxrReserved__24HdTypedSampledDataSourceINS0_7VtArrayINS0_7SdfPathEEEEELN9__gnu_cxx12_Lock_policyE2ELb0ELb0EEptEv(ptr noundef nonnull align 1 dereferenceable(1) %6) #5
  %16 = load ptr, ptr %15, align 8
  %17 = getelementptr inbounds ptr, ptr %16, i64 4
  %18 = load ptr, ptr %17, align 8
  invoke void %18(ptr dead_on_unwind writable sret(%"class.pxrInternal_v0_24__pxrReserved__::VtArray") align 8 %0, ptr noundef nonnull align 8 dereferenceable(8) %15, float noundef 0.000000e+00)
          to label %19 unwind label %24

19:                                               ; preds = %14
  store i32 1, ptr %9, align 4
  br label %30

20:                                               ; preds = %2
  %21 = landingpad { ptr, i32 }
          cleanup
  %22 = extractvalue { ptr, i32 } %21, 0
  store ptr %22, ptr %7, align 8
  %23 = extractvalue { ptr, i32 } %21, 1
  store i32 %23, ptr %8, align 4
  br label %31

24:                                               ; preds = %28, %14
  %25 = landingpad { ptr, i32 }
          cleanup
  %26 = extractvalue { ptr, i32 } %25, 0
  store ptr %26, ptr %7, align 8
  %27 = extractvalue { ptr, i32 } %25, 1
  store i32 %27, ptr %8, align 4
  call void @_ZNSt10shared_ptrIN32pxrInternal_v0_24__pxrReserved__24HdTypedSampledDataSourceINS0_7VtArrayINS0_7SdfPathEEEEEED2Ev(ptr noundef nonnull align 8 dereferenceable(16) %6) #5
  br label %31

28:                                               ; preds = %12
  invoke void @_ZN32pxrInternal_v0_24__pxrReserved__7VtArrayINS_7SdfPathEEC2Ev(ptr noundef nonnull align 8 dereferenceable(40) %0)
          to label %29 unwind label %24

29:                                               ; preds = %28
  store i32 1, ptr %9, align 4
  br label %30

30:                                               ; preds = %29, %19
  call void @_ZNSt10shared_ptrIN32pxrInternal_v0_24__pxrReserved__24HdTypedSampledDataSourceINS0_7VtArrayINS0_7SdfPathEEEEEED2Ev(ptr noundef nonnull align 8 dereferenceable(16) %6) #5
  call void @_ZN32pxrInternal_v0_24__pxrReserved__25HdInstancerTopologySchemaD2Ev(ptr noundef nonnull align 8 dereferenceable(16) %5) #5
  ret void

31:                                               ; preds = %24, %20
  call void @_ZN32pxrInternal_v0_24__pxrReserved__25HdInstancerTopologySchemaD2Ev(ptr noundef nonnull align 8 dereferenceable(16) %5) #5
  br label %32

32:                                               ; preds = %31
  %33 = load ptr, ptr %7, align 8
  %34 = load i32, ptr %8, align 4
  %35 = insertvalue { ptr, i32 } poison, ptr %33, 0
  %36 = insertvalue { ptr, i32 } %35, i32 %34, 1
  resume { ptr, i32 } %36
}