; Function Attrs: mustprogress uwtable
define void @_ZN32pxrInternal_v0_24__pxrReserved__47UsdImagingPiPrototypePropagatingSceneIndex_Impl14_GetPrototypesERKNS_16HdSceneIndexPrimE(ptr dead_on_unwind noalias writable sret(%"class.pxrInternal_v0_24__pxrReserved__::VtArray") align 8 %0, ptr noundef nonnull align 8 dereferenceable(24) %1) local_unnamed_addr #0 personality ptr @__gxx_personality_v0 {
  %3 = alloca %"class.pxrInternal_v0_24__pxrReserved__::HdInstancerTopologySchema", align 8
  %4 = alloca %"class.std::shared_ptr.81", align 8
  %5 = getelementptr inbounds nuw i8, ptr %1, i64 8
  call void @_ZN32pxrInternal_v0_24__pxrReserved__25HdInstancerTopologySchema13GetFromParentERKSt10shared_ptrINS_21HdContainerDataSourceEE(ptr dead_on_unwind nonnull writable sret(%"class.pxrInternal_v0_24__pxrReserved__::HdInstancerTopologySchema") align 8 %3, ptr noundef nonnull align 8 dereferenceable(16) %5)
  invoke void @_ZNK32pxrInternal_v0_24__pxrReserved__25HdInstancerTopologySchema13GetPrototypesEv(ptr dead_on_unwind nonnull writable sret(%"class.std::shared_ptr.81") align 8 %4, ptr noundef nonnull align 8 dereferenceable(16) %3)
          to label %6 unwind label %12

6:                                                ; preds = %2
  %7 = load ptr, ptr %4, align 8
  %.not = icmp eq ptr %7, null
  br i1 %.not, label %16, label %8

8:                                                ; preds = %6
  %9 = load ptr, ptr %7, align 8
  %10 = getelementptr inbounds i8, ptr %9, i64 32
  %11 = load ptr, ptr %10, align 8
  invoke void %11(ptr dead_on_unwind writable sret(%"class.pxrInternal_v0_24__pxrReserved__::VtArray") align 8 %0, ptr noundef nonnull align 8 dereferenceable(8) %7, float noundef 0.000000e+00)
          to label %17 unwind label %14

12:                                               ; preds = %2
  %13 = landingpad { ptr, i32 }
          cleanup
  br label %90

14:                                               ; preds = %8
  %15 = landingpad { ptr, i32 }
          cleanup
  call void @_ZNSt10shared_ptrIN32pxrInternal_v0_24__pxrReserved__24HdTypedSampledDataSourceINS0_7VtArrayINS0_7SdfPathEEEEEED2Ev(ptr noundef nonnull align 8 dereferenceable(16) %4) #23
  br label %90

16:                                               ; preds = %6
  call void @llvm.memset.p0.i64(ptr noundef nonnull align 8 dereferenceable(40) %0, i8 0, i64 40, i1 false)
  br label %17

17:                                               ; preds = %16, %8
  %18 = getelementptr inbounds nuw i8, ptr %4, i64 8
  %19 = load ptr, ptr %18, align 8
  %.not.i.i.i = icmp eq ptr %19, null
  br i1 %.not.i.i.i, label %_ZNSt10shared_ptrIN32pxrInternal_v0_24__pxrReserved__24HdTypedSampledDataSourceINS0_7VtArrayINS0_7SdfPathEEEEEED2Ev.exit, label %20

20:                                               ; preds = %17
  %21 = getelementptr inbounds nuw i8, ptr %19, i64 8
  %22 = load atomic i64, ptr %21 acquire, align 8
  %23 = icmp eq i64 %22, 4294967297
  %24 = trunc i64 %22 to i32
  br i1 %23, label %25, label %30

25:                                               ; preds = %20
  store i32 0, ptr %21, align 8
  %26 = getelementptr inbounds nuw i8, ptr %19, i64 12
  store i32 0, ptr %26, align 4
  %27 = load ptr, ptr %19, align 8
  %28 = getelementptr inbounds i8, ptr %27, i64 16
  %29 = load ptr, ptr %28, align 8
  call void %29(ptr noundef nonnull align 8 dereferenceable(16) %19) #23
  br label %_ZNSt16_Sp_counted_baseILN9__gnu_cxx12_Lock_policyE2EE24_M_release_last_use_coldEv.exit.sink.split.i.i.i.i

30:                                               ; preds = %20
  %31 = load i8, ptr @__libc_single_threaded, align 1
  %.not.i.i.i.i = icmp eq i8 %31, 0
  br i1 %.not.i.i.i.i, label %34, label %32

32:                                               ; preds = %30
  %33 = add nsw i32 %24, -1
  store i32 %33, ptr %21, align 4
  br label %36

34:                                               ; preds = %30
  %35 = atomicrmw volatile add ptr %21, i32 -1 acq_rel, align 4
  br label %36

36:                                               ; preds = %34, %32
  %.0.i.i.i.i = phi i32 [ %24, %32 ], [ %35, %34 ]
  %37 = icmp eq i32 %.0.i.i.i.i, 1
  br i1 %37, label %38, label %_ZNSt10shared_ptrIN32pxrInternal_v0_24__pxrReserved__24HdTypedSampledDataSourceINS0_7VtArrayINS0_7SdfPathEEEEEED2Ev.exit

38:                                               ; preds = %36
  %39 = load ptr, ptr %19, align 8
  %40 = getelementptr inbounds i8, ptr %39, i64 16
  %41 = load ptr, ptr %40, align 8
  call void %41(ptr noundef nonnull align 8 dereferenceable(16) %19) #23
  %42 = getelementptr inbounds nuw i8, ptr %19, i64 12
  %43 = load i8, ptr @__libc_single_threaded, align 1
  %.not.i.i.i.i.i.i = icmp eq i8 %43, 0
  br i1 %.not.i.i.i.i.i.i, label %47, label %44

44:                                               ; preds = %38
  %45 = load i32, ptr %42, align 4
  %46 = add nsw i32 %45, -1
  store i32 %46, ptr %42, align 4
  br label %49

47:                                               ; preds = %38
  %48 = atomicrmw volatile add ptr %42, i32 -1 acq_rel, align 4
  br label %49

49:                                               ; preds = %47, %44
  %.0.i.i.i.i.i.i = phi i32 [ %45, %44 ], [ %48, %47 ]
  %50 = icmp eq i32 %.0.i.i.i.i.i.i, 1
  br i1 %50, label %_ZNSt16_Sp_counted_baseILN9__gnu_cxx12_Lock_policyE2EE24_M_release_last_use_coldEv.exit.sink.split.i.i.i.i, label %_ZNSt10shared_ptrIN32pxrInternal_v0_24__pxrReserved__24HdTypedSampledDataSourceINS0_7VtArrayINS0_7SdfPathEEEEEED2Ev.exit

_ZNSt16_Sp_counted_baseILN9__gnu_cxx12_Lock_policyE2EE24_M_release_last_use_coldEv.exit.sink.split.i.i.i.i: ; preds = %49, %25
  %51 = load ptr, ptr %19, align 8
  %52 = getelementptr inbounds i8, ptr %51, i64 24
  %53 = load ptr, ptr %52, align 8
  call void %53(ptr noundef nonnull align 8 dereferenceable(16) %19) #23
  br label %_ZNSt10shared_ptrIN32pxrInternal_v0_24__pxrReserved__24HdTypedSampledDataSourceINS0_7VtArrayINS0_7SdfPathEEEEEED2Ev.exit

_ZNSt10shared_ptrIN32pxrInternal_v0_24__pxrReserved__24HdTypedSampledDataSourceINS0_7VtArrayINS0_7SdfPathEEEEEED2Ev.exit: ; preds = %17, %36, %49, %_ZNSt16_Sp_counted_baseILN9__gnu_cxx12_Lock_policyE2EE24_M_release_last_use_coldEv.exit.sink.split.i.i.i.i
  %54 = getelementptr inbounds nuw i8, ptr %3, i64 8
  %55 = load ptr, ptr %54, align 8
  %.not.i.i.i.i.i = icmp eq ptr %55, null
  br i1 %.not.i.i.i.i.i, label %_ZN32pxrInternal_v0_24__pxrReserved__25HdInstancerTopologySchemaD2Ev.exit, label %56

56:                                               ; preds = %_ZNSt10shared_ptrIN32pxrInternal_v0_24__pxrReserved__24HdTypedSampledDataSourceINS0_7VtArrayINS0_7SdfPathEEEEEED2Ev.exit
  %57 = getelementptr inbounds nuw i8, ptr %55, i64 8
  %58 = load atomic i64, ptr %57 acquire, align 8
  %59 = icmp eq i64 %58, 4294967297
  %60 = trunc i64 %58 to i32
  br i1 %59, label %61, label %66

61:                                               ; preds = %56
  store i32 0, ptr %57, align 8
  %62 = getelementptr inbounds nuw i8, ptr %55, i64 12
  store i32 0, ptr %62, align 4
  %63 = load ptr, ptr %55, align 8
  %64 = getelementptr inbounds i8, ptr %63, i64 16
  %65 = load ptr, ptr %64, align 8
  call void %65(ptr noundef nonnull align 8 dereferenceable(16) %55) #23
  br label %_ZNSt16_Sp_counted_baseILN9__gnu_cxx12_Lock_policyE2EE24_M_release_last_use_coldEv.exit.sink.split.i.i.i.i.i.i

66:                                               ; preds = %56
  %67 = load i8, ptr @__libc_single_threaded, align 1
  %.not.i.i.i.i.i.i4 = icmp eq i8 %67, 0
  br i1 %.not.i.i.i.i.i.i4, label %70, label %68

68:                                               ; preds = %66
  %69 = add nsw i32 %60, -1
  store i32 %69, ptr %57, align 4
  br label %72

70:                                               ; preds = %66
  %71 = atomicrmw volatile add ptr %57, i32 -1 acq_rel, align 4
  br label %72

72:                                               ; preds = %70, %68
  %.0.i.i.i.i.i.i5 = phi i32 [ %60, %68 ], [ %71, %70 ]
  %73 = icmp eq i32 %.0.i.i.i.i.i.i5, 1
  br i1 %73, label %74, label %_ZN32pxrInternal_v0_24__pxrReserved__25HdInstancerTopologySchemaD2Ev.exit

74:                                               ; preds = %72
  %75 = load ptr, ptr %55, align 8
  %76 = getelementptr inbounds i8, ptr %75, i64 16
  %77 = load ptr, ptr %76, align 8
  call void %77(ptr noundef nonnull align 8 dereferenceable(16) %55) #23
  %78 = getelementptr inbounds nuw i8, ptr %55, i64 12
  %79 = load i8, ptr @__libc_single_threaded, align 1
  %.not.i.i.i.i.i.i.i.i = icmp eq i8 %79, 0
  br i1 %.not.i.i.i.i.i.i.i.i, label %83, label %80

80:                                               ; preds = %74
  %81 = load i32, ptr %78, align 4
  %82 = add nsw i32 %81, -1
  store i32 %82, ptr %78, align 4
  br label %85

83:                                               ; preds = %74
  %84 = atomicrmw volatile add ptr %78, i32 -1 acq_rel, align 4
  br label %85

85:                                               ; preds = %83, %80
  %.0.i.i.i.i.i.i.i.i = phi i32 [ %81, %80 ], [ %84, %83 ]
  %86 = icmp eq i32 %.0.i.i.i.i.i.i.i.i, 1
  br i1 %86, label %_ZNSt16_Sp_counted_baseILN9__gnu_cxx12_Lock_policyE2EE24_M_release_last_use_coldEv.exit.sink.split.i.i.i.i.i.i, label %_ZN32pxrInternal_v0_24__pxrReserved__25HdInstancerTopologySchemaD2Ev.exit

_ZNSt16_Sp_counted_baseILN9__gnu_cxx12_Lock_policyE2EE24_M_release_last_use_coldEv.exit.sink.split.i.i.i.i.i.i: ; preds = %85, %61
  %87 = load ptr, ptr %55, align 8
  %88 = getelementptr inbounds i8, ptr %87, i64 24
  %89 = load ptr, ptr %88, align 8
  call void %89(ptr noundef nonnull align 8 dereferenceable(16) %55) #23
  br label %_ZN32pxrInternal_v0_24__pxrReserved__25HdInstancerTopologySchemaD2Ev.exit

_ZN32pxrInternal_v0_24__pxrReserved__25HdInstancerTopologySchemaD2Ev.exit: ; preds = %_ZNSt10shared_ptrIN32pxrInternal_v0_24__pxrReserved__24HdTypedSampledDataSourceINS0_7VtArrayINS0_7SdfPathEEEEEED2Ev.exit, %72, %85, %_ZNSt16_Sp_counted_baseILN9__gnu_cxx12_Lock_policyE2EE24_M_release_last_use_coldEv.exit.sink.split.i.i.i.i.i.i
  ret void

90:                                               ; preds = %14, %12
  %.pn = phi { ptr, i32 } [ %15, %14 ], [ %13, %12 ]
  call void @_ZN32pxrInternal_v0_24__pxrReserved__25HdInstancerTopologySchemaD2Ev(ptr noundef nonnull align 8 dereferenceable(16) %3) #23
  resume { ptr, i32 } %.pn
}